; Function Attrs: nounwind uwtable
define dso_local range(i32 -1, 1) i32 @unpacklongdouble_array(ptr noundef initializes((0, 8)) %0, ptr noundef captures(none) %1, ptr noundef captures(none) %2) local_unnamed_addr #0 {
  %4 = alloca x86_fp80, align 16
  store ptr null, ptr %0, align 8
  %5 = getelementptr inbounds nuw i8, ptr %2, i64 16
  %6 = load i32, ptr %5, align 8
  %7 = getelementptr inbounds nuw i8, ptr %2, i64 20
  %8 = load i32, ptr %7, align 4
  %9 = sub i32 %6, %8
  %10 = icmp ult i32 %9, 4
  br i1 %10, label %unpack32.exit, label %11

11:                                               ; preds = %3
  %12 = getelementptr inbounds nuw i8, ptr %2, i64 8
  %13 = load ptr, ptr %12, align 8
  %14 = zext i32 %8 to i64
  %15 = getelementptr inbounds nuw i8, ptr %13, i64 %14
  %.0.copyload.i = load i32, ptr %15, align 1
  %16 = tail call noundef i32 @llvm.bswap.i32(i32 %.0.copyload.i)
  store i32 %16, ptr %1, align 4
  %17 = load i32, ptr %7, align 4
  %18 = add i32 %17, 4
  store i32 %18, ptr %7, align 4
  %19 = load i32, ptr %1, align 4
  %.not23 = icmp eq i32 %19, 0
  br i1 %.not23, label %20, label %21

20:                                               ; preds = %11
  store ptr null, ptr %0, align 8
  br label %24

21:                                               ; preds = %11
  %22 = zext i32 %19 to i64
  %23 = tail call ptr @slurm_xcalloc(i64 noundef %22, i64 noundef 16, i1 noundef zeroext true, i1 noundef zeroext true, ptr noundef nonnull @.str.1, i32 noundef 724, ptr noundef nonnull @__func__.unpacklongdouble_array) #14
  store ptr %23, ptr %0, align 8
  %.not24 = icmp eq ptr %23, null
  br i1 %.not24, label %unpack32.exit, label %24

24:                                               ; preds = %20, %21
  %25 = load i32, ptr %1, align 4
  %.not = icmp eq i32 %25, 0
  br i1 %.not, label %.thread35, label %.lr.ph

.lr.ph:                                           ; preds = %24, %50
  %indvars.iv = phi i64 [ %indvars.iv.next, %50 ], [ 0, %24 ]
  %26 = load ptr, ptr %0, align 8
  %27 = getelementptr inbounds nuw x86_fp80, ptr %26, i64 %indvars.iv
  call void @llvm.lifetime.start.p0(i64 16, ptr nonnull %4) #14
  %28 = load i32, ptr %5, align 8
  %29 = load i32, ptr %7, align 4
  %30 = sub i32 %28, %29
  %31 = icmp ult i32 %30, 4
  br i1 %31, label %.loopexit, label %32

32:                                               ; preds = %.lr.ph
  %33 = load ptr, ptr %12, align 8
  %34 = zext i32 %29 to i64
  %35 = getelementptr inbounds nuw i8, ptr %33, i64 %34
  %.0.copyload.i.i.i = load i32, ptr %35, align 1
  %36 = call noundef i32 @llvm.bswap.i32(i32 %.0.copyload.i.i.i)
  %37 = add i32 %29, 4
  store i32 %37, ptr %7, align 4
  %.not16.i.i = icmp eq i32 %.0.copyload.i.i.i, 0
  br i1 %.not16.i.i, label %unpackmem_ptr.exit.i, label %38

38:                                               ; preds = %32
  %39 = icmp ugt i32 %36, 1073741824
  br i1 %39, label %40, label %42

40:                                               ; preds = %38
  %41 = call i32 (ptr, ...) @error(ptr noundef nonnull @.str.15, ptr noundef nonnull @__func__.unpackmem_ptr, i32 noundef %36, i32 noundef 1073741824) #14
  br label %.loopexit

42:                                               ; preds = %38
  %43 = sub i32 %28, %37
  %44 = icmp ult i32 %43, %36
  br i1 %44, label %.loopexit, label %45

45:                                               ; preds = %42
  %46 = zext i32 %37 to i64
  %47 = getelementptr inbounds nuw i8, ptr %33, i64 %46
  %48 = add i32 %36, %37
  store i32 %48, ptr %7, align 4
  br label %unpackmem_ptr.exit.i

unpackmem_ptr.exit.i:                             ; preds = %45, %32
  %.07.i = phi ptr [ null, %32 ], [ %47, %45 ]
  %49 = call i32 (ptr, ptr, ...) @__isoc99_sscanf(ptr noundef %.07.i, ptr noundef nonnull @.str.13, ptr noundef nonnull %4) #14
  %.not5.i = icmp eq i32 %49, 1
  br i1 %.not5.i, label %50, label %.loopexit

50:                                               ; preds = %unpackmem_ptr.exit.i
  %51 = load x86_fp80, ptr %4, align 16
  %.inv.i = fcmp ord x86_fp80 %51, 0xK00000000000000000000
  %52 = select i1 %.inv.i, x86_fp80 %51, x86_fp80 0xK00000000000000000000
  store x86_fp80 %52, ptr %27, align 16
  call void @llvm.lifetime.end.p0(i64 16, ptr nonnull %4) #14
  %indvars.iv.next = add nuw nsw i64 %indvars.iv, 1
  %53 = load i32, ptr %1, align 4
  %54 = zext i32 %53 to i64
  %55 = icmp samesign ult i64 %indvars.iv.next, %54
  br i1 %55, label %.lr.ph, label %.thread35, !llvm.loop !24

.loopexit:                                        ; preds = %unpackmem_ptr.exit.i, %42, %.lr.ph, %40
  call void @llvm.lifetime.end.p0(i64 16, ptr nonnull %4) #14
  br label %unpack32.exit

unpack32.exit:                                    ; preds = %21, %.loopexit, %3
  call void @slurm_xfree(ptr noundef nonnull %0) #14
  br label %.thread35

.thread35:                                        ; preds = %50, %24, %unpack32.exit
  %.021 = phi i32 [ -1, %unpack32.exit ], [ 0, %24 ], [ 0, %50 ]
  ret i32 %.021
}